target datalayout = "e-m:e-p270:32:32-p271:32:32-p272:64:64-i64:64-i128:128-f80:128-n8:16:32:64-S128"
target triple = "x86_64-pc-linux-gnu"

%class.Metadata = type { ptr }
%class.AccessFlags = type { i32 }
%class.stackChunkHandle = type { %class.Handle }
%class.Handle = type { ptr }
%class.vframe = type { ptr, %class.frame, %class.RegisterMap, ptr, %class.stackChunkHandle }
%class.frame = type { %union.anon, ptr, ptr, ptr, i32, i8, %union.anon.0, %union.anon.1 }
%union.anon = type { ptr }
%union.anon.0 = type { ptr }
%union.anon.1 = type { ptr }
%class.RegisterMap = type <{ [609 x ptr], [10 x i64], i8, [7 x i8], ptr, %class.stackChunkHandle, i32, i8, i8, i8, i8 }>
%class.Method = type { %class.Metadata, ptr, ptr, ptr, ptr, %class.AccessFlags, i32, %class.MethodFlags, i16, %class.JfrTraceFlag, ptr, ptr, ptr, ptr }
%class.MethodFlags = type { i32 }
%class.JfrTraceFlag = type { i16 }

; Function Attrs: mustprogress nounwind uwtable
define linkonce_odr hidden noundef i32 @_ZNK6Method12intrinsic_idEv(ptr noundef nonnull align 8 dereferenceable(88) %0) #1 comdat align 2 {
  %2 = alloca ptr, align 8
  store ptr %0, ptr %2, align 8
  %3 = load ptr, ptr %2, align 8
  %4 = getelementptr inbounds %class.Method, ptr %3, i32 0, i32 8
  %5 = load i16, ptr %4, align 4
  %6 = zext i16 %5 to i32
  ret i32 %6
}

; Function Attrs: mustprogress nounwind uwtable
define linkonce_odr hidden noundef ptr @_ZNK11RegisterMap6threadEv(ptr noundef nonnull align 8 dereferenceable(4983) %0) #1 comdat align 2 {
  %2 = alloca ptr, align 8
  store ptr %0, ptr %2, align 8
  %3 = load ptr, ptr %2, align 8
  %4 = getelementptr inbounds %class.RegisterMap, ptr %3, i32 0, i32 4
  %5 = load ptr, ptr %4, align 8
  ret ptr %5
}

; Function Attrs: mustprogress nounwind uwtable
define linkonce_odr hidden noundef ptr @_ZNK6vframe12register_mapEv(ptr noundef nonnull align 8 dereferenceable(5064) %0) #1 comdat align 2 {
  %2 = alloca ptr, align 8
  store ptr %0, ptr %2, align 8
  %3 = load ptr, ptr %2, align 8
  %4 = getelementptr inbounds %class.vframe, ptr %3, i32 0, i32 2
  ret ptr %4
}

; Function Attrs: mustprogress nounwind uwtable
define linkonce_odr hidden noundef zeroext i1 @_ZNK6Method31is_continuation_enter_intrinsicEv(ptr noundef nonnull align 8 dereferenceable(88) %0) #1 comdat align 2 {
  %2 = alloca ptr, align 8
  store ptr %0, ptr %2, align 8
  %3 = load ptr, ptr %2, align 8
  %4 = call noundef i32 @_ZNK6Method12intrinsic_idEv(ptr noundef nonnull align 8 dereferenceable(88) %3)
  %5 = icmp eq i32 %4, 198
  ret i1 %5
}

; Function Attrs: mustprogress nounwind uwtable
define linkonce_odr hidden noundef ptr @_ZN10javaVFrame4castEP6vframe(ptr noundef %0) #1 comdat align 2 {
  %2 = alloca ptr, align 8
  store ptr %0, ptr %2, align 8
  %3 = load ptr, ptr %2, align 8
  ret ptr %3
}

; Function Attrs: mustprogress nounwind uwtable
define hidden noundef zeroext i1 @_ZNK6vframe16is_vthread_entryEv(ptr noundef nonnull align 8 dereferenceable(5064) %0) #1 align 2 {
  %2 = alloca ptr, align 8
  store ptr %0, ptr %2, align 8
  %3 = load ptr, ptr %2, align 8
  %4 = getelementptr inbounds %class.vframe, ptr %3, i32 0, i32 1
  %5 = call noundef ptr @_ZNK6vframe12register_mapEv(ptr noundef nonnull align 8 dereferenceable(5064) %3)
  %6 = call noundef ptr @_ZNK11RegisterMap6threadEv(ptr noundef nonnull align 8 dereferenceable(4983) %5)
  %7 = call noundef zeroext i1 @_ZNK5frame22is_first_vthread_frameEP10JavaThread(ptr noundef nonnull align 8 dereferenceable(56) %4, ptr noundef %6)
  ret i1 %7
}

; Function Attrs: mustprogress nounwind uwtable
define hidden noundef ptr @_ZNK6vframe11java_senderEv(ptr noundef nonnull align 8 dereferenceable(5064) %0) #1 align 2 {
  %2 = alloca ptr, align 8
  %3 = alloca ptr, align 8
  %4 = alloca ptr, align 8
  store ptr %0, ptr %3, align 8
  %5 = load ptr, ptr %3, align 8
  %6 = load ptr, ptr %5, align 8
  %7 = getelementptr inbounds ptr, ptr %6, i64 0
  %8 = load ptr, ptr %7, align 8
  %9 = call noundef ptr %8(ptr noundef nonnull align 8 dereferenceable(5064) %5)
  store ptr %9, ptr %4, align 8
  br label %10

10:                                               ; preds = %34, %1
  %11 = load ptr, ptr %4, align 8
  %12 = icmp ne ptr %11, null
  br i1 %12, label %13, label %40

13:                                               ; preds = %10
  %14 = load ptr, ptr %4, align 8
  %15 = call noundef zeroext i1 @_ZNK6vframe16is_vthread_entryEv(ptr noundef nonnull align 8 dereferenceable(5064) %14)
  br i1 %15, label %16, label %17

16:                                               ; preds = %13
  br label %40

17:                                               ; preds = %13
  %18 = load ptr, ptr %4, align 8
  %19 = load ptr, ptr %18, align 8
  %20 = getelementptr inbounds ptr, ptr %19, i64 3
  %21 = load ptr, ptr %20, align 8
  %22 = call noundef zeroext i1 %21(ptr noundef nonnull align 8 dereferenceable(5064) %18)
  br i1 %22, label %23, label %34

23:                                               ; preds = %17
  %24 = load ptr, ptr %4, align 8
  %25 = call noundef ptr @_ZN10javaVFrame4castEP6vframe(ptr noundef %24)
  %26 = load ptr, ptr %25, align 8
  %27 = getelementptr inbounds ptr, ptr %26, i64 6
  %28 = load ptr, ptr %27, align 8
  %29 = call noundef ptr %28(ptr noundef nonnull align 8 dereferenceable(5064) %25)
  %30 = call noundef zeroext i1 @_ZNK6Method31is_continuation_enter_intrinsicEv(ptr noundef nonnull align 8 dereferenceable(88) %29)
  br i1 %30, label %34, label %31

31:                                               ; preds = %23
  %32 = load ptr, ptr %4, align 8
  %33 = call noundef ptr @_ZN10javaVFrame4castEP6vframe(ptr noundef %32)
  store ptr %33, ptr %2, align 8
  br label %41

34:                                               ; preds = %23, %17
  %35 = load ptr, ptr %4, align 8
  %36 = load ptr, ptr %35, align 8
  %37 = getelementptr inbounds ptr, ptr %36, i64 0
  %38 = load ptr, ptr %37, align 8
  %39 = call noundef ptr %38(ptr noundef nonnull align 8 dereferenceable(5064) %35)
  store ptr %39, ptr %4, align 8
  br label %10, !llvm.loop !6

40:                                               ; preds = %16, %10
  store ptr null, ptr %2, align 8
  br label %41

41:                                               ; preds = %40, %31
  %42 = load ptr, ptr %2, align 8
  ret ptr %42
}