; Function Attrs: mustprogress nounwind uwtable
define hidden noundef ptr @_ZNK6vframe11java_senderEv(ptr noundef nonnull align 8 dereferenceable(5064) %0) local_unnamed_addr #0 align 2 {
  %2 = load ptr, ptr %0, align 8
  %3 = load ptr, ptr %2, align 8
  %4 = tail call noundef ptr %3(ptr noundef nonnull align 8 dereferenceable(5064) %0) #11
  %.not9 = icmp eq ptr %4, null
  br i1 %.not9, label %._crit_edge, label %.lr.ph

.lr.ph:                                           ; preds = %1, %22
  %.010 = phi ptr [ %25, %22 ], [ %4, %1 ]
  %5 = getelementptr inbounds i8, ptr %.010, i64 8
  %6 = getelementptr inbounds i8, ptr %.010, i64 5024
  %7 = load ptr, ptr %6, align 8
  %8 = tail call noundef zeroext i1 @_ZNK5frame22is_first_vthread_frameEP10JavaThread(ptr noundef nonnull align 8 dereferenceable(56) %5, ptr noundef %7) #11
  br i1 %8, label %._crit_edge, label %9

9:                                                ; preds = %.lr.ph
  %10 = load ptr, ptr %.010, align 8
  %11 = getelementptr inbounds i8, ptr %10, i64 24
  %12 = load ptr, ptr %11, align 8
  %13 = tail call noundef zeroext i1 %12(ptr noundef nonnull align 8 dereferenceable(5064) %.010) #11
  br i1 %13, label %14, label %22

14:                                               ; preds = %9
  %15 = load ptr, ptr %.010, align 8
  %16 = getelementptr inbounds i8, ptr %15, i64 48
  %17 = load ptr, ptr %16, align 8
  %18 = tail call noundef ptr %17(ptr noundef nonnull align 8 dereferenceable(5064) %.010) #11
  %19 = getelementptr inbounds i8, ptr %18, i64 52
  %20 = load i16, ptr %19, align 4
  %21 = icmp eq i16 %20, 198
  br i1 %21, label %22, label %._crit_edge

22:                                               ; preds = %14, %9
  %23 = load ptr, ptr %.010, align 8
  %24 = load ptr, ptr %23, align 8
  %25 = tail call noundef ptr %24(ptr noundef nonnull align 8 dereferenceable(5064) %.010) #11
  %.not = icmp eq ptr %25, null
  br i1 %.not, label %._crit_edge, label %.lr.ph, !llvm.loop !9

._crit_edge:                                      ; preds = %.lr.ph, %22, %14, %1
  %.08 = phi ptr [ null, %1 ], [ %.010, %14 ], [ null, %22 ], [ null, %.lr.ph ]
  ret ptr %.08
}